target datalayout = "e-m:e-p270:32:32-p271:32:32-p272:64:64-i64:64-i128:128-f80:128-n8:16:32:64-S128"
target triple = "x86_64-pc-linux-gnu"

%"class.icu_77::EraRules" = type { %"class.icu_77::LocalMemory", i32, i32 }
%"class.icu_77::LocalMemory" = type { %"class.icu_77::LocalPointerBase" }
%"class.icu_77::LocalPointerBase" = type { ptr }

; Function Attrs: mustprogress nounwind uwtable
define internal noundef i32 @_ZN6icu_77L10encodeDateEiii(i32 noundef %0, i32 noundef %1, i32 noundef %2) #1 {
  %4 = alloca i32, align 4
  %5 = alloca i32, align 4
  %6 = alloca i32, align 4
  store i32 %0, ptr %4, align 4, !tbaa !10
  store i32 %1, ptr %5, align 4, !tbaa !10
  store i32 %2, ptr %6, align 4, !tbaa !10
  %7 = load i32, ptr %4, align 4, !tbaa !10
  %8 = shl i32 %7, 16
  %9 = load i32, ptr %5, align 4, !tbaa !10
  %10 = shl i32 %9, 8
  %11 = or i32 %8, %10
  %12 = load i32, ptr %6, align 4, !tbaa !10
  %13 = or i32 %11, %12
  ret i32 %13
}

; Function Attrs: mustprogress nounwind uwtable
define internal noundef i32 @_ZN6icu_77L25compareEncodedDateWithYMDEiiii(i32 noundef %0, i32 noundef %1, i32 noundef %2, i32 noundef %3) #1 {
  %5 = alloca i32, align 4
  %6 = alloca i32, align 4
  %7 = alloca i32, align 4
  %8 = alloca i32, align 4
  %9 = alloca i32, align 4
  %10 = alloca i32, align 4
  %11 = alloca i32, align 4
  store i32 %0, ptr %6, align 4, !tbaa !10
  store i32 %1, ptr %7, align 4, !tbaa !10
  store i32 %2, ptr %8, align 4, !tbaa !10
  store i32 %3, ptr %9, align 4, !tbaa !10
  %12 = load i32, ptr %7, align 4, !tbaa !10
  %13 = icmp slt i32 %12, -32768
  br i1 %13, label %14, label %29

14:                                               ; preds = %4
  %15 = load i32, ptr %6, align 4, !tbaa !10
  %16 = icmp eq i32 %15, -2147483391
  br i1 %16, label %17, label %28

17:                                               ; preds = %14
  %18 = load i32, ptr %7, align 4, !tbaa !10
  %19 = icmp sgt i32 %18, -1
  br i1 %19, label %26, label %20

20:                                               ; preds = %17
  %21 = load i32, ptr %8, align 4, !tbaa !10
  %22 = icmp sgt i32 %21, 1
  br i1 %22, label %26, label %23

23:                                               ; preds = %20
  %24 = load i32, ptr %9, align 4, !tbaa !10
  %25 = icmp sgt i32 %24, 1
  br i1 %25, label %26, label %27

26:                                               ; preds = %23, %20, %17
  store i32 -1, ptr %5, align 4
  br label %49

27:                                               ; preds = %23
  store i32 0, ptr %5, align 4
  br label %49

28:                                               ; preds = %14
  store i32 1, ptr %5, align 4
  br label %49

29:                                               ; preds = %4
  %30 = load i32, ptr %7, align 4, !tbaa !10
  %31 = icmp sgt i32 %30, 32767
  br i1 %31, label %32, label %33

32:                                               ; preds = %29
  store i32 -1, ptr %5, align 4
  br label %49

33:                                               ; preds = %29
  call void @llvm.lifetime.start.p0(i64 4, ptr %10) #10
  %34 = load i32, ptr %7, align 4, !tbaa !10
  %35 = load i32, ptr %8, align 4, !tbaa !10
  %36 = load i32, ptr %9, align 4, !tbaa !10
  %37 = call noundef i32 @_ZN6icu_77L10encodeDateEiii(i32 noundef %34, i32 noundef %35, i32 noundef %36)
  store i32 %37, ptr %10, align 4, !tbaa !10
  %38 = load i32, ptr %6, align 4, !tbaa !10
  %39 = load i32, ptr %10, align 4, !tbaa !10
  %40 = icmp slt i32 %38, %39
  br i1 %40, label %41, label %42

41:                                               ; preds = %33
  store i32 -1, ptr %5, align 4
  store i32 1, ptr %11, align 4
  br label %48

42:                                               ; preds = %33
  %43 = load i32, ptr %6, align 4, !tbaa !10
  %44 = load i32, ptr %10, align 4, !tbaa !10
  %45 = icmp eq i32 %43, %44
  br i1 %45, label %46, label %47

46:                                               ; preds = %42
  store i32 0, ptr %5, align 4
  store i32 1, ptr %11, align 4
  br label %48

47:                                               ; preds = %42
  store i32 1, ptr %5, align 4
  store i32 1, ptr %11, align 4
  br label %48

48:                                               ; preds = %47, %46, %41
  call void @llvm.lifetime.end.p0(i64 4, ptr %10) #10
  br label %49

49:                                               ; preds = %48, %32, %28, %27, %26
  %50 = load i32, ptr %5, align 4
  ret i32 %50
}

; Function Attrs: mustprogress nounwind uwtable
define linkonce_odr noundef nonnull align 4 dereferenceable(4) ptr @_ZNK6icu_7711LocalMemoryIiEixEl(ptr noundef nonnull align 8 dereferenceable(8) %0, i64 noundef %1) #1 comdat align 2 {
  %3 = alloca ptr, align 8
  %4 = alloca i64, align 8
  store ptr %0, ptr %3, align 8, !tbaa !8
  store i64 %1, ptr %4, align 8, !tbaa !48
  %5 = load ptr, ptr %3, align 8
  %6 = getelementptr inbounds nuw %"class.icu_77::LocalPointerBase", ptr %5, i32 0, i32 0
  %7 = load ptr, ptr %6, align 8, !tbaa !18
  %8 = load i64, ptr %4, align 8, !tbaa !48
  %9 = getelementptr inbounds i32, ptr %7, i64 %8
  ret ptr %9
}

; Function Attrs: inlinehint mustprogress nounwind uwtable
define linkonce_odr noundef i32 @_ZNK6icu_778EraRules18getCurrentEraIndexEv(ptr noundef nonnull align 8 dereferenceable(16) %0) #2 comdat align 2 {
  %2 = alloca ptr, align 8
  store ptr %0, ptr %2, align 8, !tbaa !3
  %3 = load ptr, ptr %2, align 8
  %4 = getelementptr inbounds nuw %"class.icu_77::EraRules", ptr %3, i32 0, i32 2
  %5 = load i32, ptr %4, align 4, !tbaa !30
  ret i32 %5
}

; Function Attrs: inlinehint mustprogress nounwind uwtable
define internal noundef signext i8 @_ZL9U_FAILURE10UErrorCode(i32 noundef %0) #2 {
  %2 = alloca i32, align 4
  store i32 %0, ptr %2, align 4, !tbaa !19
  %3 = load i32, ptr %2, align 4, !tbaa !19
  %4 = icmp sgt i32 %3, 0
  %5 = zext i1 %4 to i8
  ret i8 %5
}

; Function Attrs: mustprogress uwtable
define noundef i32 @_ZNK6icu_778EraRules11getEraIndexEiiiR10UErrorCode(ptr noundef nonnull align 8 dereferenceable(16) %0, i32 noundef %1, i32 noundef %2, i32 noundef %3, ptr noundef nonnull align 4 dereferenceable(4) %4) #0 align 2 {
  %6 = alloca i32, align 4
  %7 = alloca ptr, align 8
  %8 = alloca i32, align 4
  %9 = alloca i32, align 4
  %10 = alloca i32, align 4
  %11 = alloca ptr, align 8
  %12 = alloca i32, align 4
  %13 = alloca i32, align 4
  %14 = alloca i32, align 4
  store ptr %0, ptr %7, align 8, !tbaa !3
  store i32 %1, ptr %8, align 4, !tbaa !10
  store i32 %2, ptr %9, align 4, !tbaa !10
  store i32 %3, ptr %10, align 4, !tbaa !10
  store ptr %4, ptr %11, align 8, !tbaa !33
  %15 = load ptr, ptr %7, align 8
  %16 = load ptr, ptr %11, align 8, !tbaa !33
  %17 = load i32, ptr %16, align 4, !tbaa !19
  %18 = call noundef signext i8 @_ZL9U_FAILURE10UErrorCode(i32 noundef %17)
  %19 = icmp ne i8 %18, 0
  br i1 %19, label %20, label %21

20:                                               ; preds = %5
  store i32 -1, ptr %6, align 4
  br label %79

21:                                               ; preds = %5
  %22 = load i32, ptr %9, align 4, !tbaa !10
  %23 = icmp slt i32 %22, 1
  br i1 %23, label %33, label %24

24:                                               ; preds = %21
  %25 = load i32, ptr %9, align 4, !tbaa !10
  %26 = icmp sgt i32 %25, 12
  br i1 %26, label %33, label %27

27:                                               ; preds = %24
  %28 = load i32, ptr %10, align 4, !tbaa !10
  %29 = icmp slt i32 %28, 1
  br i1 %29, label %33, label %30

30:                                               ; preds = %27
  %31 = load i32, ptr %10, align 4, !tbaa !10
  %32 = icmp sgt i32 %31, 31
  br i1 %32, label %33, label %35

33:                                               ; preds = %30, %27, %24, %21
  %34 = load ptr, ptr %11, align 8, !tbaa !33
  store i32 1, ptr %34, align 4, !tbaa !19
  store i32 -1, ptr %6, align 4
  br label %79

35:                                               ; preds = %30
  call void @llvm.lifetime.start.p0(i64 4, ptr %12) #10
  %36 = getelementptr inbounds nuw %"class.icu_77::EraRules", ptr %15, i32 0, i32 1
  %37 = load i32, ptr %36, align 8, !tbaa !12
  store i32 %37, ptr %12, align 4, !tbaa !10
  call void @llvm.lifetime.start.p0(i64 4, ptr %13) #10
  %38 = getelementptr inbounds nuw %"class.icu_77::EraRules", ptr %15, i32 0, i32 0
  %39 = call noundef i32 @_ZNK6icu_778EraRules18getCurrentEraIndexEv(ptr noundef nonnull align 8 dereferenceable(16) %15)
  %40 = sext i32 %39 to i64
  %41 = call noundef nonnull align 4 dereferenceable(4) ptr @_ZNK6icu_7711LocalMemoryIiEixEl(ptr noundef nonnull align 8 dereferenceable(8) %38, i64 noundef %40)
  %42 = load i32, ptr %41, align 4, !tbaa !10
  %43 = load i32, ptr %8, align 4, !tbaa !10
  %44 = load i32, ptr %9, align 4, !tbaa !10
  %45 = load i32, ptr %10, align 4, !tbaa !10
  %46 = call noundef i32 @_ZN6icu_77L25compareEncodedDateWithYMDEiiii(i32 noundef %42, i32 noundef %43, i32 noundef %44, i32 noundef %45)
  %47 = icmp sle i32 %46, 0
  br i1 %47, label %48, label %50

48:                                               ; preds = %35
  %49 = call noundef i32 @_ZNK6icu_778EraRules18getCurrentEraIndexEv(ptr noundef nonnull align 8 dereferenceable(16) %15)
  store i32 %49, ptr %13, align 4, !tbaa !10
  br label %51

50:                                               ; preds = %35
  store i32 0, ptr %13, align 4, !tbaa !10
  br label %51

51:                                               ; preds = %50, %48
  br label %52

52:                                               ; preds = %76, %51
  %53 = load i32, ptr %13, align 4, !tbaa !10
  %54 = load i32, ptr %12, align 4, !tbaa !10
  %55 = sub nsw i32 %54, 1
  %56 = icmp slt i32 %53, %55
  br i1 %56, label %57, label %77

57:                                               ; preds = %52
  call void @llvm.lifetime.start.p0(i64 4, ptr %14) #10
  %58 = load i32, ptr %13, align 4, !tbaa !10
  %59 = load i32, ptr %12, align 4, !tbaa !10
  %60 = add nsw i32 %58, %59
  %61 = sdiv i32 %60, 2
  store i32 %61, ptr %14, align 4, !tbaa !10
  %62 = getelementptr inbounds nuw %"class.icu_77::EraRules", ptr %15, i32 0, i32 0
  %63 = load i32, ptr %14, align 4, !tbaa !10
  %64 = sext i32 %63 to i64
  %65 = call noundef nonnull align 4 dereferenceable(4) ptr @_ZNK6icu_7711LocalMemoryIiEixEl(ptr noundef nonnull align 8 dereferenceable(8) %62, i64 noundef %64)
  %66 = load i32, ptr %65, align 4, !tbaa !10
  %67 = load i32, ptr %8, align 4, !tbaa !10
  %68 = load i32, ptr %9, align 4, !tbaa !10
  %69 = load i32, ptr %10, align 4, !tbaa !10
  %70 = call noundef i32 @_ZN6icu_77L25compareEncodedDateWithYMDEiiii(i32 noundef %66, i32 noundef %67, i32 noundef %68, i32 noundef %69)
  %71 = icmp sle i32 %70, 0
  br i1 %71, label %72, label %74

72:                                               ; preds = %57
  %73 = load i32, ptr %14, align 4, !tbaa !10
  store i32 %73, ptr %13, align 4, !tbaa !10
  br label %76

74:                                               ; preds = %57
  %75 = load i32, ptr %14, align 4, !tbaa !10
  store i32 %75, ptr %12, align 4, !tbaa !10
  br label %76

76:                                               ; preds = %74, %72
  call void @llvm.lifetime.end.p0(i64 4, ptr %14) #10
  br label %52, !llvm.loop !50

77:                                               ; preds = %52
  %78 = load i32, ptr %13, align 4, !tbaa !10
  store i32 %78, ptr %6, align 4
  call void @llvm.lifetime.end.p0(i64 4, ptr %13) #10
  call void @llvm.lifetime.end.p0(i64 4, ptr %12) #10
  br label %79

79:                                               ; preds = %77, %33, %20
  %80 = load i32, ptr %6, align 4
  ret i32 %80
}