; Function Attrs: mustprogress nofree norecurse nosync nounwind memory(read, argmem: readwrite, inaccessiblemem: none) uwtable
define noundef i32 @_ZNK6icu_778EraRules11getEraIndexEiiiR10UErrorCode(ptr noundef nonnull readonly align 8 captures(none) dereferenceable(16) %0, i32 noundef %1, i32 noundef %2, i32 noundef %3, ptr noundef nonnull align 4 captures(none) dereferenceable(4) %4) local_unnamed_addr #10 align 2 {
  %6 = load i32, ptr %4, align 4, !tbaa !13
  %7 = icmp slt i32 %6, 1
  br i1 %7, label %8, label %.loopexit

8:                                                ; preds = %5
  %9 = add i32 %2, -13
  %or.cond = icmp ult i32 %9, -12
  %10 = add i32 %3, -32
  %11 = icmp ult i32 %10, -31
  %or.cond5 = or i1 %or.cond, %11
  br i1 %or.cond5, label %12, label %13

12:                                               ; preds = %8
  store i32 1, ptr %4, align 4, !tbaa !13
  br label %.loopexit

13:                                               ; preds = %8
  %14 = getelementptr inbounds nuw i8, ptr %0, i64 8
  %15 = load i32, ptr %14, align 8, !tbaa !9
  %16 = getelementptr inbounds nuw i8, ptr %0, i64 12
  %17 = load i32, ptr %16, align 4, !tbaa !21
  %18 = sext i32 %17 to i64
  %19 = load ptr, ptr %0, align 8, !tbaa !3
  %20 = getelementptr inbounds i32, ptr %19, i64 %18
  %21 = load i32, ptr %20, align 4, !tbaa !17
  %22 = icmp slt i32 %1, -32768
  br i1 %22, label %23, label %25

23:                                               ; preds = %13
  %24 = icmp eq i32 %21, -2147483391
  br i1 %24, label %_ZN6icu_77L25compareEncodedDateWithYMDEiiii.exit.thread37.thread63, label %_ZN6icu_77L25compareEncodedDateWithYMDEiiii.exit.thread37.thread56

25:                                               ; preds = %13
  %26 = icmp sgt i32 %1, 32767
  br i1 %26, label %_ZN6icu_77L25compareEncodedDateWithYMDEiiii.exit.thread37, label %_ZN6icu_77L25compareEncodedDateWithYMDEiiii.exit

_ZN6icu_77L25compareEncodedDateWithYMDEiiii.exit: ; preds = %25
  %27 = shl nsw i32 %1, 16
  %28 = shl nuw nsw i32 %2, 8
  %29 = or disjoint i32 %28, %27
  %30 = or disjoint i32 %29, %3
  %.not = icmp sgt i32 %21, %30
  br i1 %.not, label %_ZN6icu_77L25compareEncodedDateWithYMDEiiii.exit.thread37.thread, label %_ZN6icu_77L25compareEncodedDateWithYMDEiiii.exit.thread37

_ZN6icu_77L25compareEncodedDateWithYMDEiiii.exit.thread37: ; preds = %_ZN6icu_77L25compareEncodedDateWithYMDEiiii.exit, %25
  %31 = add nsw i32 %15, -1
  %32 = icmp slt i32 %17, %31
  br i1 %32, label %.lr.ph.split, label %.loopexit

_ZN6icu_77L25compareEncodedDateWithYMDEiiii.exit.thread37.thread63: ; preds = %23
  %33 = add nsw i32 %15, -1
  %34 = icmp slt i32 %17, %33
  br i1 %34, label %_ZN6icu_77L25compareEncodedDateWithYMDEiiii.exit35.us.preheader, label %.loopexit

_ZN6icu_77L25compareEncodedDateWithYMDEiiii.exit.thread37.thread56: ; preds = %23
  %35 = icmp sgt i32 %15, 1
  br i1 %35, label %_ZN6icu_77L25compareEncodedDateWithYMDEiiii.exit35.us.preheader, label %.loopexit

_ZN6icu_77L25compareEncodedDateWithYMDEiiii.exit35.us.preheader: ; preds = %_ZN6icu_77L25compareEncodedDateWithYMDEiiii.exit.thread37.thread63, %_ZN6icu_77L25compareEncodedDateWithYMDEiiii.exit.thread37.thread56
  %.140.us.ph = phi i32 [ %17, %_ZN6icu_77L25compareEncodedDateWithYMDEiiii.exit.thread37.thread63 ], [ 0, %_ZN6icu_77L25compareEncodedDateWithYMDEiiii.exit.thread37.thread56 ]
  br label %_ZN6icu_77L25compareEncodedDateWithYMDEiiii.exit35.us

_ZN6icu_77L25compareEncodedDateWithYMDEiiii.exit.thread37.thread: ; preds = %_ZN6icu_77L25compareEncodedDateWithYMDEiiii.exit
  %36 = icmp sgt i32 %15, 1
  br i1 %36, label %.lr.ph.split.thread, label %.loopexit

.lr.ph.split.thread:                              ; preds = %_ZN6icu_77L25compareEncodedDateWithYMDEiiii.exit.thread37.thread
  %37 = shl nsw i32 %1, 16
  %38 = shl nuw nsw i32 %2, 8
  %39 = or disjoint i32 %38, %37
  br label %_ZN6icu_77L25compareEncodedDateWithYMDEiiii.exit35.preheader

_ZN6icu_77L25compareEncodedDateWithYMDEiiii.exit35.us: ; preds = %_ZN6icu_77L25compareEncodedDateWithYMDEiiii.exit35.us.preheader, %_ZN6icu_77L25compareEncodedDateWithYMDEiiii.exit35.us
  %.140.us = phi i32 [ %..1.us, %_ZN6icu_77L25compareEncodedDateWithYMDEiiii.exit35.us ], [ %.140.us.ph, %_ZN6icu_77L25compareEncodedDateWithYMDEiiii.exit35.us.preheader ]
  %.02739.us = phi i32 [ %.027..us, %_ZN6icu_77L25compareEncodedDateWithYMDEiiii.exit35.us ], [ %15, %_ZN6icu_77L25compareEncodedDateWithYMDEiiii.exit35.us.preheader ]
  %40 = add nsw i32 %.140.us, %.02739.us
  %41 = sdiv i32 %40, 2
  %42 = sext i32 %41 to i64
  %43 = getelementptr inbounds i32, ptr %19, i64 %42
  %44 = load i32, ptr %43, align 4, !tbaa !17
  %45 = icmp eq i32 %44, -2147483391
  %.027..us = select i1 %45, i32 %.02739.us, i32 %41
  %..1.us = select i1 %45, i32 %41, i32 %.140.us
  %46 = add nsw i32 %.027..us, -1
  %47 = icmp slt i32 %..1.us, %46
  br i1 %47, label %_ZN6icu_77L25compareEncodedDateWithYMDEiiii.exit35.us, label %.loopexit, !llvm.loop !29

.lr.ph.split:                                     ; preds = %_ZN6icu_77L25compareEncodedDateWithYMDEiiii.exit.thread37
  %48 = shl nuw nsw i32 %2, 8
  %49 = shl nsw i32 %1, 16
  %50 = or disjoint i32 %48, %49
  %51 = icmp sgt i32 %1, 32767
  br i1 %51, label %_ZN6icu_77L25compareEncodedDateWithYMDEiiii.exit35.us43, label %_ZN6icu_77L25compareEncodedDateWithYMDEiiii.exit35.preheader

_ZN6icu_77L25compareEncodedDateWithYMDEiiii.exit35.preheader: ; preds = %.lr.ph.split.thread, %.lr.ph.split
  %.026535562 = phi i32 [ 0, %.lr.ph.split.thread ], [ %17, %.lr.ph.split ]
  %.pn = phi i32 [ %39, %.lr.ph.split.thread ], [ %50, %.lr.ph.split ]
  %52 = or disjoint i32 %.pn, %3
  br label %_ZN6icu_77L25compareEncodedDateWithYMDEiiii.exit35

_ZN6icu_77L25compareEncodedDateWithYMDEiiii.exit35.us43: ; preds = %.lr.ph.split, %_ZN6icu_77L25compareEncodedDateWithYMDEiiii.exit35.us43
  %.140.us41 = phi i32 [ %54, %_ZN6icu_77L25compareEncodedDateWithYMDEiiii.exit35.us43 ], [ %17, %.lr.ph.split ]
  %53 = add nsw i32 %.140.us41, %15
  %54 = sdiv i32 %53, 2
  %55 = icmp slt i32 %54, %31
  br i1 %55, label %_ZN6icu_77L25compareEncodedDateWithYMDEiiii.exit35.us43, label %.loopexit, !llvm.loop !29

_ZN6icu_77L25compareEncodedDateWithYMDEiiii.exit35: ; preds = %_ZN6icu_77L25compareEncodedDateWithYMDEiiii.exit35.preheader, %_ZN6icu_77L25compareEncodedDateWithYMDEiiii.exit35
  %.140 = phi i32 [ %..1, %_ZN6icu_77L25compareEncodedDateWithYMDEiiii.exit35 ], [ %.026535562, %_ZN6icu_77L25compareEncodedDateWithYMDEiiii.exit35.preheader ]
  %.02739 = phi i32 [ %.027., %_ZN6icu_77L25compareEncodedDateWithYMDEiiii.exit35 ], [ %15, %_ZN6icu_77L25compareEncodedDateWithYMDEiiii.exit35.preheader ]
  %56 = add nsw i32 %.140, %.02739
  %57 = sdiv i32 %56, 2
  %58 = sext i32 %57 to i64
  %59 = getelementptr inbounds i32, ptr %19, i64 %58
  %60 = load i32, ptr %59, align 4, !tbaa !17
  %.not49 = icmp sgt i32 %60, %52
  %.027. = select i1 %.not49, i32 %57, i32 %.02739
  %..1 = select i1 %.not49, i32 %.140, i32 %57
  %61 = add nsw i32 %.027., -1
  %62 = icmp slt i32 %..1, %61
  br i1 %62, label %_ZN6icu_77L25compareEncodedDateWithYMDEiiii.exit35, label %.loopexit, !llvm.loop !29

.loopexit:                                        ; preds = %_ZN6icu_77L25compareEncodedDateWithYMDEiiii.exit35, %_ZN6icu_77L25compareEncodedDateWithYMDEiiii.exit35.us43, %_ZN6icu_77L25compareEncodedDateWithYMDEiiii.exit35.us, %_ZN6icu_77L25compareEncodedDateWithYMDEiiii.exit.thread37.thread63, %_ZN6icu_77L25compareEncodedDateWithYMDEiiii.exit.thread37.thread56, %_ZN6icu_77L25compareEncodedDateWithYMDEiiii.exit.thread37.thread, %_ZN6icu_77L25compareEncodedDateWithYMDEiiii.exit.thread37, %5, %12
  %.0 = phi i32 [ -1, %12 ], [ -1, %5 ], [ %17, %_ZN6icu_77L25compareEncodedDateWithYMDEiiii.exit.thread37 ], [ 0, %_ZN6icu_77L25compareEncodedDateWithYMDEiiii.exit.thread37.thread ], [ 0, %_ZN6icu_77L25compareEncodedDateWithYMDEiiii.exit.thread37.thread56 ], [ %17, %_ZN6icu_77L25compareEncodedDateWithYMDEiiii.exit.thread37.thread63 ], [ %..1.us, %_ZN6icu_77L25compareEncodedDateWithYMDEiiii.exit35.us ], [ %54, %_ZN6icu_77L25compareEncodedDateWithYMDEiiii.exit35.us43 ], [ %..1, %_ZN6icu_77L25compareEncodedDateWithYMDEiiii.exit35 ]
  ret i32 %.0
}